(i__main__
studic
p0
(dp1
S'classe'
p2
S'12SciC'
p3
sS'books'
p4
(lp5
sS'name'
p6
S'Mariyam SG'
p7
sS'rollno'
p8
I1
sb.(i__main__
studic
p0
(dp1
S'classe'
p2
S'12SciA'
p3
sS'books'
p4
(lp5
sS'name'
p6
S'Rachael'
p7
sS'rollno'
p8
I3
sb.(i__main__
studic
p0
(dp1
S'classe'
p2
S'11SciD'
p3
sS'books'
p4
(lp5
sS'name'
p6
S'Tim'
p7
sS'rollno'
p8
I4
sb.(i__main__
studic
p0
(dp1
S'classe'
p2
S'11SciA'
p3
sS'books'
p4
(lp5
sS'name'
p6
S'Matthew'
p7
sS'rollno'
p8
I5
sb.(iInventory
studic
p0
(dp1
S'classe'
p2
S'12SciC'
p3
sS'books'
p4
(lp5
sS'name'
p6
S'Simran K'
p7
sS'rollno'
p8
I2
sb.(iInventory
studic
p0
(dp1
S'classe'
p2
S'12SciC'
p3
sS'books'
p4
(lp5
sS'name'
p6
S'Ganga S.N'
p7
sS'rollno'
p8
I6
sb.(iInventory
studic
p0
(dp1
S'classe'
p2
S'12SciC'
p3
sS'books'
p4
(lp5
sS'name'
p6
S'Annette J'
p7
sS'rollno'
p8
I7
sb.(iInventory
studic
p0
(dp1
S'classe'
p2
S'12SciC'
p3
sS'books'
p4
(lp5
sS'name'
p6
S'Anushka C'
p7
sS'rollno'
p8
I8
sb.(iInventory
studic
p0
(dp1
S'classe'
p2
S'12SciC'
p3
sS'books'
p4
(lp5
sS'name'
p6
S'Amina T'
p7
sS'rollno'
p8
I9
sb.(iInventory
studic
p0
(dp1
S'classe'
p2
S'12SciC'
p3
sS'books'
p4
(lp5
sS'name'
p6
S'Smrithi P'
p7
sS'rollno'
p8
I10
sb.(iInventory
studic
p0
(dp1
S'classe'
p2
S'12SciC'
p3
sS'books'
p4
(lp5
sS'name'
p6
S'Ayesha R'
p7
sS'rollno'
p8
I11
sb.(iInventory
studic
p0
(dp1
S'classe'
p2
S'12SciC'
p3
sS'books'
p4
(lp5
sS'name'
p6
S'Anusree S'
p7
sS'rollno'
p8
I12
sb.(iInventory
studic
p0
(dp1
S'classe'
p2
S'12SciC'
p3
sS'books'
p4
(lp5
sS'name'
p6
S'Ishita G'
p7
sS'rollno'
p8
I13
sb.(iInventory
studic
p0
(dp1
S'classe'
p2
S'12SciC'
p3
sS'books'
p4
(lp5
sS'name'
p6
S'Nikhila S'
p7
sS'rollno'
p8
I14
sb.